target datalayout = "e-m:e-p270:32:32-p271:32:32-p272:64:64-i64:64-i128:128-f80:128-n8:16:32:64-S128"
target triple = "x86_64-pc-linux-gnu"

@PrefixTable = dso_local global ptr null, align 8

; Function Attrs: nounwind uwtable
define dso_local i64 @trackingGetTotalPrefixes() #0 {
  %1 = alloca i64, align 8
  %2 = load ptr, ptr @PrefixTable, align 8, !tbaa !31
  %3 = icmp eq ptr %2, null
  br i1 %3, label %4, label %5

4:                                                ; preds = %0
  store i64 0, ptr %1, align 8
  br label %8

5:                                                ; preds = %0
  %6 = load ptr, ptr @PrefixTable, align 8, !tbaa !31
  %7 = call i64 @raxSize(ptr noundef %6)
  store i64 %7, ptr %1, align 8
  br label %8

8:                                                ; preds = %5, %4
  %9 = load i64, ptr %1, align 8
  ret i64 %9
}